target datalayout = "e-m:e-p270:32:32-p271:32:32-p272:64:64-i64:64-i128:128-f80:128-n8:16:32:64-S128"
target triple = "x86_64-pc-linux-gnu"

%struct.timeval = type { i64, i64 }
%struct.settings = type { i64, i32, i32, i32, ptr, i32, i32, i32, ptr, ptr, i32, double, i32, i32, i32, i8, i32, i32, i8, i32, i32, i32, i32, i32, i32, i8, i8, i8, i8, i8, i8, i8, i32, i32, double, double, i32, i32, i8, i32, i8, i8, ptr, i32, i32, i32, i32, double, double, i32, i8, i32, i32, i32, i32, i32, i8, i8, i8, ptr, i32, i32, i32, i32, i32, i32, i32, i32, i32, i32, double, i8, i32, i32, ptr, i32 }
%struct.event = type { %struct.event_callback, %union.anon.1, i32, ptr, %union.anon.3, i16, i16, %struct.timeval }
%struct.event_callback = type { %struct.anon.0, i16, i8, i8, %union.anon, ptr }
%struct.anon.0 = type { ptr, ptr }
%union.anon = type { ptr }
%union.anon.1 = type { %struct.anon.2 }
%struct.anon.2 = type { ptr, ptr }
%union.anon.3 = type { %struct.anon.4 }
%struct.anon.4 = type { %struct.anon.5, %struct.timeval }
%struct.anon.5 = type { ptr, ptr }
%struct.conn = type { ptr, i32, i8, i8, i8, i8, i8, i8, i8, i8, ptr, i32, i32, i32, %struct.event, i16, i16, ptr, ptr, i32, i32, ptr, ptr, ptr, i32, ptr, i32, i32, i32, i32, i32, i32, i32, %struct.sockaddr_in6, i32, i8, %struct.anon.9, %union.protocol_binary_request_header, i64, i64, i16, i32, i32, ptr, ptr, ptr, ptr, ptr, ptr }
%struct.sockaddr_in6 = type { i16, i16, i32, %struct.in6_addr, i32 }
%struct.in6_addr = type { %union.anon.8 }
%union.anon.8 = type { [4 x i32] }
%struct.anon.9 = type { ptr, i64, i64 }
%union.protocol_binary_request_header = type { %struct.anon.10 }
%struct.anon.10 = type { i8, i8, i16, i8, i8, i16, i32, i32, i64 }

@settings = dso_local global %struct.settings zeroinitializer, align 8
@stderr = external global ptr, align 8
@.str.15 = private unnamed_addr constant [25 x i8] c"%d: going from %s to %s\0A\00", align 1

; Function Attrs: nounwind uwtable
define internal ptr @state_text(i32 noundef %0) #0 {
  %2 = alloca i32, align 4
  %3 = alloca [15 x ptr], align 16
  store i32 %0, ptr %2, align 4, !tbaa !8
  call void @llvm.lifetime.start.p0(i64 120, ptr %3) #15
  call void @llvm.memcpy.p0.p0.i64(ptr align 16 %3, ptr align 16 @__const.state_text.statenames, i64 120, i1 false)
  %4 = load i32, ptr %2, align 4, !tbaa !8
  %5 = zext i32 %4 to i64
  %6 = getelementptr inbounds nuw [15 x ptr], ptr %3, i64 0, i64 %5
  %7 = load ptr, ptr %6, align 8, !tbaa !29
  call void @llvm.lifetime.end.p0(i64 120, ptr %3) #15
  ret ptr %7
}

; Function Attrs: nounwind uwtable
define dso_local void @conn_set_state(ptr noundef %0, i32 noundef %1) #0 {
  %3 = alloca ptr, align 8
  %4 = alloca i32, align 4
  store ptr %0, ptr %3, align 8, !tbaa !10
  store i32 %1, ptr %4, align 4, !tbaa !8
  %5 = load i32, ptr %4, align 4, !tbaa !8
  %6 = load ptr, ptr %3, align 8, !tbaa !10
  %7 = getelementptr inbounds nuw %struct.conn, ptr %6, i32 0, i32 11
  %8 = load i32, ptr %7, align 8, !tbaa !50
  %9 = icmp ne i32 %5, %8
  br i1 %9, label %10, label %36

10:                                               ; preds = %2
  %11 = load i32, ptr getelementptr inbounds nuw (%struct.settings, ptr @settings, i32 0, i32 5), align 8, !tbaa !51
  %12 = icmp sgt i32 %11, 2
  br i1 %12, label %13, label %25

13:                                               ; preds = %10
  %14 = load ptr, ptr @stderr, align 8, !tbaa !52
  %15 = load ptr, ptr %3, align 8, !tbaa !10
  %16 = getelementptr inbounds nuw %struct.conn, ptr %15, i32 0, i32 1
  %17 = load i32, ptr %16, align 8, !tbaa !54
  %18 = load ptr, ptr %3, align 8, !tbaa !10
  %19 = getelementptr inbounds nuw %struct.conn, ptr %18, i32 0, i32 11
  %20 = load i32, ptr %19, align 8, !tbaa !50
  %21 = call ptr @state_text(i32 noundef %20)
  %22 = load i32, ptr %4, align 4, !tbaa !8
  %23 = call ptr @state_text(i32 noundef %22)
  %24 = call i32 (ptr, ptr, ...) @fprintf(ptr noundef %14, ptr noundef @.str.15, i32 noundef %17, ptr noundef %21, ptr noundef %23) #15
  br label %25

25:                                               ; preds = %13, %10
  %26 = load i32, ptr %4, align 4, !tbaa !8
  %27 = icmp eq i32 %26, 5
  br i1 %27, label %31, label %28

28:                                               ; preds = %25
  %29 = load i32, ptr %4, align 4, !tbaa !8
  %30 = icmp eq i32 %29, 9
  br i1 %30, label %31, label %32

31:                                               ; preds = %28, %25
  br label %32

32:                                               ; preds = %31, %28
  %33 = load i32, ptr %4, align 4, !tbaa !8
  %34 = load ptr, ptr %3, align 8, !tbaa !10
  %35 = getelementptr inbounds nuw %struct.conn, ptr %34, i32 0, i32 11
  store i32 %33, ptr %35, align 8, !tbaa !50
  br label %36

36:                                               ; preds = %32, %2
  ret void
}