; Function Attrs: nofree nounwind uwtable
define dso_local void @conn_set_state(ptr noundef captures(none) %0, i32 noundef %1) local_unnamed_addr #9 {
  %3 = getelementptr inbounds nuw i8, ptr %0, i64 32
  %4 = load i32, ptr %3, align 8, !tbaa !48
  %.not = icmp eq i32 %1, %4
  br i1 %.not, label %20, label %5

5:                                                ; preds = %2
  %6 = load i32, ptr getelementptr inbounds nuw (i8, ptr @settings, i64 32), align 8, !tbaa !49
  %7 = icmp sgt i32 %6, 2
  br i1 %7, label %8, label %19

8:                                                ; preds = %5
  %9 = load ptr, ptr @stderr, align 8, !tbaa !50
  %10 = getelementptr inbounds nuw i8, ptr %0, i64 8
  %11 = load i32, ptr %10, align 8, !tbaa !52
  %12 = zext i32 %4 to i64
  %13 = getelementptr inbounds nuw [15 x ptr], ptr @__const.state_text.statenames, i64 0, i64 %12
  %14 = load ptr, ptr %13, align 8, !tbaa !55
  %15 = zext i32 %1 to i64
  %16 = getelementptr inbounds nuw [15 x ptr], ptr @__const.state_text.statenames, i64 0, i64 %15
  %17 = load ptr, ptr %16, align 8, !tbaa !55
  %18 = tail call i32 (ptr, ptr, ...) @fprintf(ptr noundef %9, ptr noundef nonnull @.str.15, i32 noundef %11, ptr noundef %14, ptr noundef %17) #36
  br label %19

19:                                               ; preds = %8, %5
  store i32 %1, ptr %3, align 8, !tbaa !48
  br label %20

20:                                               ; preds = %19, %2
  ret void
}